# SymbolsHelper-Confirmed: 5.96.0 alpha amd64 i386 mipsel powerpc ppc64 s390x
libKF5Kirigami2.so.5 libkf5kirigami2-5 #MINVER#
* Build-Depends-Package: kirigami2-dev
 _ZN8Kirigami13PlatformTheme10setInheritEb@Base 5.69.0
 _ZN8Kirigami13PlatformTheme10setPaletteERK8QPalette@Base 5.69.0
 _ZN8Kirigami13PlatformTheme11qt_metacallEN11QMetaObject4CallEiPPv@Base 5.69.0
 _ZN8Kirigami13PlatformTheme11qt_metacastEPKc@Base 5.69.0
 _ZN8Kirigami13PlatformTheme11setColorSetENS0_8ColorSetE@Base 5.69.0
 _ZN8Kirigami13PlatformTheme12setLinkColorERK6QColor@Base 5.69.0
 _ZN8Kirigami13PlatformTheme12setSmallFontERK5QFont@Base 5.70.0
 _ZN8Kirigami13PlatformTheme12setTextColorERK6QColor@Base 5.69.0
 _ZN8Kirigami13PlatformTheme13colorsChangedEv@Base 5.69.0
 _ZN8Kirigami13PlatformTheme13iconFromThemeERK7QStringRK6QColor@Base 5.69.0
 _ZN8Kirigami13PlatformTheme13setColorGroupENS0_10ColorGroupE@Base 5.69.0
 _ZN8Kirigami13PlatformTheme13setFocusColorERK6QColor@Base 5.69.0
 _ZN8Kirigami13PlatformTheme13setHoverColorERK6QColor@Base 5.69.0
 _ZN8Kirigami13PlatformTheme14inheritChangedEb@Base 5.69.0
 _ZN8Kirigami13PlatformTheme14paletteChangedERK8QPalette@Base 5.69.0
 _ZN8Kirigami13PlatformTheme14setDefaultFontERK5QFont@Base 5.69.0
 _ZN8Kirigami13PlatformTheme14updateChildrenEP7QObject@Base 5.80.0
 _ZN8Kirigami13PlatformTheme15colorSetChangedENS0_8ColorSetE@Base 5.69.0
 _ZN8Kirigami13PlatformTheme15determineParentEP7QObject@Base 5.80.0
 _ZN8Kirigami13PlatformTheme16emitColorChangedEv@Base 5.80.0
 _ZN8Kirigami13PlatformTheme16smallFontChangedERK5QFont@Base 5.70.0
 _ZN8Kirigami13PlatformTheme16staticMetaObjectE@Base 5.69.0
 _ZN8Kirigami13PlatformTheme17colorGroupChangedENS0_10ColorGroupE@Base 5.69.0
 _ZN8Kirigami13PlatformTheme17setHighlightColorERK6QColor@Base 5.69.0
 _ZN8Kirigami13PlatformTheme18defaultFontChangedERK5QFont@Base 5.69.0
 _ZN8Kirigami13PlatformTheme18setActiveTextColorERK6QColor@Base 5.69.0
 _ZN8Kirigami13PlatformTheme18setBackgroundColorERK6QColor@Base 5.69.0
 _ZN8Kirigami13PlatformTheme18setCustomLinkColorERK6QColor@Base 5.69.0
 _ZN8Kirigami13PlatformTheme18setCustomTextColorERK6QColor@Base 5.69.0
 _ZN8Kirigami13PlatformTheme19setCustomFocusColorERK6QColor@Base 5.69.0
 _ZN8Kirigami13PlatformTheme19setCustomHoverColorERK6QColor@Base 5.69.0
 _ZN8Kirigami13PlatformTheme19setNeutralTextColorERK6QColor@Base 5.69.0
 _ZN8Kirigami13PlatformTheme19setVisitedLinkColorERK6QColor@Base 5.69.0
 _ZN8Kirigami13PlatformTheme20setDisabledTextColorERK6QColor@Base 5.69.0
 _ZN8Kirigami13PlatformTheme20setNegativeTextColorERK6QColor@Base 5.69.0
 _ZN8Kirigami13PlatformTheme20setPositiveTextColorERK6QColor@Base 5.69.0
 _ZN8Kirigami13PlatformTheme21qmlAttachedPropertiesEP7QObject@Base 5.69.0
 _ZN8Kirigami13PlatformTheme22setLinkBackgroundColorERK6QColor@Base 5.69.0
 _ZN8Kirigami13PlatformTheme23setCustomHighlightColorERK6QColor@Base 5.69.0
 _ZN8Kirigami13PlatformTheme23setHighlightedTextColorERK6QColor@Base 5.69.0
 _ZN8Kirigami13PlatformTheme23setSupportsIconColoringEb@Base 5.69.0
 _ZN8Kirigami13PlatformTheme24setActiveBackgroundColorERK6QColor@Base 5.69.0
 _ZN8Kirigami13PlatformTheme24setCustomActiveTextColorERK6QColor@Base 5.69.0
 _ZN8Kirigami13PlatformTheme24setCustomBackgroundColorERK6QColor@Base 5.69.0
 _ZN8Kirigami13PlatformTheme25setCustomNeutralTextColorERK6QColor@Base 5.69.0
 _ZN8Kirigami13PlatformTheme25setCustomVisitedLinkColorERK6QColor@Base 5.69.0
 _ZN8Kirigami13PlatformTheme25setNeutralBackgroundColorERK6QColor@Base 5.69.0
 _ZN8Kirigami13PlatformTheme26setCustomDisabledTextColorERK6QColor@Base 5.69.0
 _ZN8Kirigami13PlatformTheme26setCustomNegativeTextColorERK6QColor@Base 5.69.0
 _ZN8Kirigami13PlatformTheme26setCustomPositiveTextColorERK6QColor@Base 5.69.0
 _ZN8Kirigami13PlatformTheme26setNegativeBackgroundColorERK6QColor@Base 5.69.0
 _ZN8Kirigami13PlatformTheme26setPositiveBackgroundColorERK6QColor@Base 5.69.0
 _ZN8Kirigami13PlatformTheme27setAlternateBackgroundColorERK6QColor@Base 5.69.0
 _ZN8Kirigami13PlatformTheme28setCustomLinkBackgroundColorERK6QColor@Base 5.69.0
 _ZN8Kirigami13PlatformTheme29setCustomHighlightedTextColorERK6QColor@Base 5.69.0
 _ZN8Kirigami13PlatformTheme29setVisitedLinkBackgroundColorERK6QColor@Base 5.69.0
 _ZN8Kirigami13PlatformTheme30setCustomActiveBackgroundColorERK6QColor@Base 5.69.0
 _ZN8Kirigami13PlatformTheme31setCustomNeutralBackgroundColorERK6QColor@Base 5.69.0
 _ZN8Kirigami13PlatformTheme32setCustomNegativeBackgroundColorERK6QColor@Base 5.69.0
 _ZN8Kirigami13PlatformTheme32setCustomPositiveBackgroundColorERK6QColor@Base 5.69.0
 _ZN8Kirigami13PlatformTheme33setCustomAlternateBackgroundColorERK6QColor@Base 5.69.0
 _ZN8Kirigami13PlatformTheme35setCustomVisitedLinkBackgroundColorERK6QColor@Base 5.69.0
 _ZN8Kirigami13PlatformTheme5eventEP6QEvent@Base 5.80.0
 _ZN8Kirigami13PlatformTheme6updateEv@Base 5.80.0
 _ZN8Kirigami13PlatformThemeC1EP7QObject@Base 5.69.0
 _ZN8Kirigami13PlatformThemeC2EP7QObject@Base 5.69.0
 _ZN8Kirigami13PlatformThemeD0Ev@Base 5.69.0
 _ZN8Kirigami13PlatformThemeD1Ev@Base 5.69.0
 _ZN8Kirigami13PlatformThemeD2Ev@Base 5.69.0
 _ZN8Kirigami13StyleSelector10setBaseUrlERK4QUrl@Base 5.80.0
 _ZN8Kirigami13StyleSelector10styleChainEv@Base 5.80.0
 _ZN8Kirigami13StyleSelector12componentUrlERK7QString@Base 5.80.0
 _ZN8Kirigami13StyleSelector12s_styleChainE@Base 5.80.0
 _ZN8Kirigami13StyleSelector14resolveFileUrlERK7QString@Base 5.80.0
 _ZN8Kirigami13StyleSelector15resolveFilePathERK7QString@Base 5.80.0
 _ZN8Kirigami13StyleSelector5styleEv@Base 5.80.0
 _ZN8Kirigami13StyleSelector9s_baseUrlE@Base 5.80.0
 _ZN8Kirigami17TabletModeWatcher10addWatcherEP7QObject@Base 5.94.0
 _ZN8Kirigami17TabletModeWatcher11qt_metacallEN11QMetaObject4CallEiPPv@Base 5.69.0
 _ZN8Kirigami17TabletModeWatcher11qt_metacastEPKc@Base 5.69.0
 _ZN8Kirigami17TabletModeWatcher13removeWatcherEP7QObject@Base 5.94.0
 _ZN8Kirigami17TabletModeWatcher16staticMetaObjectE@Base 5.69.0
 _ZN8Kirigami17TabletModeWatcher17tabletModeChangedEb@Base 5.69.0
 _ZN8Kirigami17TabletModeWatcher26tabletModeAvailableChangedEb@Base 5.69.0
 _ZN8Kirigami17TabletModeWatcher4selfEv@Base 5.69.0
 _ZN8Kirigami17TabletModeWatcherC1EP7QObject@Base 5.69.0
 _ZN8Kirigami17TabletModeWatcherC2EP7QObject@Base 5.69.0
 _ZN8Kirigami17TabletModeWatcherD0Ev@Base 5.69.0
 _ZN8Kirigami17TabletModeWatcherD1Ev@Base 5.69.0
 _ZN8Kirigami17TabletModeWatcherD2Ev@Base 5.69.0
 _ZN8Kirigami19PlatformThemeEvents20PropertyChangedEventI5QFontE4typeE@Base 5.80.0
 _ZN8Kirigami19PlatformThemeEvents20PropertyChangedEventI6QColorE4typeE@Base 5.80.0
 _ZN8Kirigami19PlatformThemeEvents20PropertyChangedEventINS_13PlatformTheme10ColorGroupEE4typeE@Base 5.80.0
 _ZN8Kirigami19PlatformThemeEvents20PropertyChangedEventINS_13PlatformTheme8ColorSetEE4typeE@Base 5.80.0
 _ZN8Kirigami19PlatformThemeEvents20PropertyChangedEventISt10shared_ptrINS_17PlatformThemeDataEEE4typeE@Base 5.80.0
 _ZN8Kirigami20BasicThemeDefinition11qt_metacallEN11QMetaObject4CallEiPPv@Base 5.80.0
 _ZN8Kirigami20BasicThemeDefinition11qt_metacastEPKc@Base 5.80.0
 _ZN8Kirigami20BasicThemeDefinition16staticMetaObjectE@Base 5.80.0
 _ZN8Kirigami20BasicThemeDefinition4syncEP10QQuickItem@Base 5.80.0
 _ZN8Kirigami20BasicThemeDefinition7changedEv@Base 5.80.0
 _ZN8Kirigami20BasicThemeDefinition9syncToQmlEPNS_13PlatformThemeE@Base 5.80.0
 _ZN8Kirigami20BasicThemeDefinitionC1EP7QObject@Base 5.80.0
 _ZN8Kirigami20BasicThemeDefinitionC2EP7QObject@Base 5.80.0
 _ZN8Kirigami21KirigamiPluginFactory10findPluginEv@Base 5.90.0
 _ZN8Kirigami21KirigamiPluginFactory11qt_metacallEN11QMetaObject4CallEiPPv@Base 5.69.0
 _ZN8Kirigami21KirigamiPluginFactory11qt_metacastEPKc@Base 5.69.0
 _ZN8Kirigami21KirigamiPluginFactory16staticMetaObjectE@Base 5.69.0
 _ZN8Kirigami21KirigamiPluginFactoryC1EP7QObject@Base 5.69.0
 _ZN8Kirigami21KirigamiPluginFactoryC2EP7QObject@Base 5.69.0
 _ZN8Kirigami21KirigamiPluginFactoryD0Ev@Base 5.69.0
 _ZN8Kirigami21KirigamiPluginFactoryD1Ev@Base 5.69.0
 _ZN8Kirigami21KirigamiPluginFactoryD2Ev@Base 5.69.0
 _ZN8Kirigami22TabletModeChangedEvent4typeE@Base 5.94.0
 _ZN8Kirigami22VirtualKeyboardWatcher10setEnabledEb@Base 5.93.0
 _ZN8Kirigami22VirtualKeyboardWatcher11qt_metacallEN11QMetaObject4CallEiPPv@Base 5.93.0
 _ZN8Kirigami22VirtualKeyboardWatcher11qt_metacastEPKc@Base 5.93.0
 _ZN8Kirigami22VirtualKeyboardWatcher13activeChangedEv@Base 5.93.0
 _ZN8Kirigami22VirtualKeyboardWatcher14enabledChangedEv@Base 5.93.0
 _ZN8Kirigami22VirtualKeyboardWatcher14visibleChangedEv@Base 5.93.0
 _ZN8Kirigami22VirtualKeyboardWatcher16availableChangedEv@Base 5.93.0
 _ZN8Kirigami22VirtualKeyboardWatcher16staticMetaObjectE@Base 5.93.0
 _ZN8Kirigami22VirtualKeyboardWatcher23willShowOnActiveChangedEv@Base 5.93.0
 _ZN8Kirigami22VirtualKeyboardWatcher4selfEv@Base 5.93.0
 _ZN8Kirigami22VirtualKeyboardWatcher9setActiveEb@Base 5.93.0
 _ZN8Kirigami22VirtualKeyboardWatcherC1EP7QObject@Base 5.93.0
 _ZN8Kirigami22VirtualKeyboardWatcherC2EP7QObject@Base 5.93.0
 _ZN8Kirigami22VirtualKeyboardWatcherD0Ev@Base 5.93.0
 _ZN8Kirigami22VirtualKeyboardWatcherD1Ev@Base 5.93.0
 _ZN8Kirigami22VirtualKeyboardWatcherD2Ev@Base 5.93.0
 _ZN8Kirigami23KirigamiPluginFactoryV211qt_metacallEN11QMetaObject4CallEiPPv@Base 5.90.0
 _ZN8Kirigami23KirigamiPluginFactoryV211qt_metacastEPKc@Base 5.90.0
 _ZN8Kirigami23KirigamiPluginFactoryV216staticMetaObjectE@Base 5.90.0
 _ZN8Kirigami23KirigamiPluginFactoryV2C1EP7QObject@Base 5.90.0
 _ZN8Kirigami23KirigamiPluginFactoryV2C2EP7QObject@Base 5.90.0
 _ZN8Kirigami23KirigamiPluginFactoryV2D0Ev@Base 5.90.0
 _ZN8Kirigami23KirigamiPluginFactoryV2D1Ev@Base 5.90.0
 _ZN8Kirigami23KirigamiPluginFactoryV2D2Ev@Base 5.90.0
 _ZN8Kirigami5Units11qt_metacallEN11QMetaObject4CallEiPPv@Base 5.90.0
 _ZN8Kirigami5Units11qt_metacastEPKc@Base 5.90.0
 _ZN8Kirigami5Units11setGridUnitEi@Base 5.90.0
 _ZN8Kirigami5Units14setHumanMomentEi@Base 5.90.0
 _ZN8Kirigami5Units15gridUnitChangedEv@Base 5.90.0
 _ZN8Kirigami5Units15setLargeSpacingEi@Base 5.90.0
 _ZN8Kirigami5Units15setLongDurationEi@Base 5.90.0
 _ZN8Kirigami5Units15setSmallSpacingEi@Base 5.90.0
 _ZN8Kirigami5Units15setToolTipDelayEi@Base 5.90.0
 _ZN8Kirigami5Units16setMediumSpacingEi@Base 5.93.0
 _ZN8Kirigami5Units16setShortDurationEi@Base 5.90.0
 _ZN8Kirigami5Units16staticMetaObjectE@Base 5.90.0
 _ZN8Kirigami5Units18humanMomentChangedEv@Base 5.90.0
 _ZN8Kirigami5Units19largeSpacingChangedEv@Base 5.90.0
 _ZN8Kirigami5Units19longDurationChangedEv@Base 5.90.0
 _ZN8Kirigami5Units19setVeryLongDurationEi@Base 5.90.0
 _ZN8Kirigami5Units19setWheelScrollLinesEi@Base 5.90.0
 _ZN8Kirigami5Units19smallSpacingChangedEv@Base 5.90.0
 _ZN8Kirigami5Units19toolTipDelayChangedEv@Base 5.90.0
 _ZN8Kirigami5Units20mediumSpacingChangedEv@Base 5.93.0
 _ZN8Kirigami5Units20setVeryShortDurationEi@Base 5.90.0
 _ZN8Kirigami5Units20shortDurationChangedEv@Base 5.90.0
 _ZN8Kirigami5Units23devicePixelRatioChangedEv@Base 5.90.0
 _ZN8Kirigami5Units23veryLongDurationChangedEv@Base 5.90.0
 _ZN8Kirigami5Units23wheelScrollLinesChangedEv@Base 5.90.0
 _ZN8Kirigami5Units24veryShortDurationChangedEv@Base 5.90.0
 _ZN8Kirigami5UnitsC1EP7QObject@Base 5.90.0
 _ZN8Kirigami5UnitsC2EP7QObject@Base 5.90.0
 _ZN8Kirigami5UnitsD0Ev@Base 5.90.0
 _ZN8Kirigami5UnitsD1Ev@Base 5.90.0
 _ZN8Kirigami5UnitsD2Ev@Base 5.90.0
 _ZN8Kirigami9IconSizes11hugeChangedEv@Base 5.90.0
 _ZN8Kirigami9IconSizes11qt_metacallEN11QMetaObject4CallEiPPv@Base 5.90.0
 _ZN8Kirigami9IconSizes11qt_metacastEPKc@Base 5.90.0
 _ZN8Kirigami9IconSizes12largeChangedEv@Base 5.90.0
 _ZN8Kirigami9IconSizes12smallChangedEv@Base 5.90.0
 _ZN8Kirigami9IconSizes13mediumChangedEv@Base 5.90.0
 _ZN8Kirigami9IconSizes15enormousChangedEv@Base 5.90.0
 _ZN8Kirigami9IconSizes16staticMetaObjectE@Base 5.90.0
 _ZN8Kirigami9IconSizes18smallMediumChangedEv@Base 5.90.0
 _ZN8Kirigami9IconSizes20sizeForLabelsChangedEv@Base 5.90.0
 _ZN8Kirigami9IconSizesC1EPNS_5UnitsE@Base 5.90.0
 _ZN8Kirigami9IconSizesC2EPNS_5UnitsE@Base 5.90.0
 _ZNK8Kirigami13PlatformTheme10colorGroupEv@Base 5.69.0
 _ZNK8Kirigami13PlatformTheme10focusColorEv@Base 5.69.0
 _ZNK8Kirigami13PlatformTheme10hoverColorEv@Base 5.69.0
 _ZNK8Kirigami13PlatformTheme10metaObjectEv@Base 5.69.0
 _ZNK8Kirigami13PlatformTheme11defaultFontEv@Base 5.69.0
 _ZNK8Kirigami13PlatformTheme14highlightColorEv@Base 5.69.0
 _ZNK8Kirigami13PlatformTheme15activeTextColorEv@Base 5.69.0
 _ZNK8Kirigami13PlatformTheme15backgroundColorEv@Base 5.69.0
 _ZNK8Kirigami13PlatformTheme16neutralTextColorEv@Base 5.69.0
 _ZNK8Kirigami13PlatformTheme16visitedLinkColorEv@Base 5.69.0
 _ZNK8Kirigami13PlatformTheme17disabledTextColorEv@Base 5.69.0
 _ZNK8Kirigami13PlatformTheme17negativeTextColorEv@Base 5.69.0
 _ZNK8Kirigami13PlatformTheme17positiveTextColorEv@Base 5.69.0
 _ZNK8Kirigami13PlatformTheme19linkBackgroundColorEv@Base 5.69.0
 _ZNK8Kirigami13PlatformTheme20highlightedTextColorEv@Base 5.69.0
 _ZNK8Kirigami13PlatformTheme20supportsIconColoringEv@Base 5.69.0
 _ZNK8Kirigami13PlatformTheme21activeBackgroundColorEv@Base 5.69.0
 _ZNK8Kirigami13PlatformTheme22neutralBackgroundColorEv@Base 5.69.0
 _ZNK8Kirigami13PlatformTheme23negativeBackgroundColorEv@Base 5.69.0
 _ZNK8Kirigami13PlatformTheme23positiveBackgroundColorEv@Base 5.69.0
 _ZNK8Kirigami13PlatformTheme24alternateBackgroundColorEv@Base 5.69.0
 _ZNK8Kirigami13PlatformTheme26visitedLinkBackgroundColorEv@Base 5.69.0
 _ZNK8Kirigami13PlatformTheme7inheritEv@Base 5.69.0
 _ZNK8Kirigami13PlatformTheme7paletteEv@Base 5.69.0
 _ZNK8Kirigami13PlatformTheme8colorSetEv@Base 5.69.0
 _ZNK8Kirigami13PlatformTheme9linkColorEv@Base 5.69.0
 _ZNK8Kirigami13PlatformTheme9smallFontEv@Base 5.70.0
 _ZNK8Kirigami13PlatformTheme9textColorEv@Base 5.69.0
 _ZNK8Kirigami17TabletModeWatcher10metaObjectEv@Base 5.69.0
 _ZNK8Kirigami17TabletModeWatcher12isTabletModeEv@Base 5.69.0
 _ZNK8Kirigami17TabletModeWatcher21isTabletModeAvailableEv@Base 5.69.0
 _ZNK8Kirigami20BasicThemeDefinition10metaObjectEv@Base 5.80.0
 _ZNK8Kirigami21KirigamiPluginFactory10metaObjectEv@Base 5.69.0
 _ZNK8Kirigami22VirtualKeyboardWatcher10metaObjectEv@Base 5.93.0
 _ZNK8Kirigami22VirtualKeyboardWatcher16willShowOnActiveEv@Base 5.93.0
 _ZNK8Kirigami22VirtualKeyboardWatcher6activeEv@Base 5.93.0
 _ZNK8Kirigami22VirtualKeyboardWatcher7enabledEv@Base 5.93.0
 _ZNK8Kirigami22VirtualKeyboardWatcher7visibleEv@Base 5.93.0
 _ZNK8Kirigami22VirtualKeyboardWatcher9availableEv@Base 5.93.0
 _ZNK8Kirigami23KirigamiPluginFactoryV210metaObjectEv@Base 5.90.0
 _ZNK8Kirigami5Units10metaObjectEv@Base 5.90.0
 _ZNK8Kirigami5Units11fontMetricsEv@Base 5.90.0
 _ZNK8Kirigami5Units11humanMomentEv@Base 5.90.0
 _ZNK8Kirigami5Units12largeSpacingEv@Base 5.90.0
 _ZNK8Kirigami5Units12longDurationEv@Base 5.90.0
 _ZNK8Kirigami5Units12smallSpacingEv@Base 5.90.0
 _ZNK8Kirigami5Units12toolTipDelayEv@Base 5.90.0
 _ZNK8Kirigami5Units13mediumSpacingEv@Base 5.93.0
 _ZNK8Kirigami5Units13shortDurationEv@Base 5.90.0
 _ZNK8Kirigami5Units14maximumIntegerEv@Base 5.101.0
 _ZNK8Kirigami5Units16devicePixelRatioEv@Base 5.90.0
 _ZNK8Kirigami5Units16veryLongDurationEv@Base 5.90.0
 _ZNK8Kirigami5Units16wheelScrollLinesEv@Base 5.90.0
 _ZNK8Kirigami5Units17veryShortDurationEv@Base 5.90.0
 _ZNK8Kirigami5Units8gridUnitEv@Base 5.90.0
 _ZNK8Kirigami5Units9iconSizesEv@Base 5.90.0
 _ZNK8Kirigami9IconSizes10metaObjectEv@Base 5.90.0
 _ZNK8Kirigami9IconSizes11smallMediumEv@Base 5.90.0
 _ZNK8Kirigami9IconSizes13sizeForLabelsEv@Base 5.90.0
 _ZNK8Kirigami9IconSizes15roundedIconSizeEi@Base 5.90.0
 _ZNK8Kirigami9IconSizes4hugeEv@Base 5.90.0
 _ZNK8Kirigami9IconSizes5largeEv@Base 5.90.0
 _ZNK8Kirigami9IconSizes5smallEv@Base 5.90.0
 _ZNK8Kirigami9IconSizes6mediumEv@Base 5.90.0
 _ZNK8Kirigami9IconSizes8enormousEv@Base 5.90.0
 (optional=templinst)_ZNSt10_HashtableIjSt4pairIKj6QColorESaIS3_ENSt8__detail10_Select1stESt8equal_toIjESt4hashIjENS5_18_Mod_range_hashingENS5_20_Default_ranged_hashENS5_20_Prime_rehash_policyENS5_17_Hashtable_traitsILb0ELb0ELb1EEEE4findERS1_@Base 5.80.0
 (optional=templinst)_ZNSt10_HashtableIjSt4pairIKj6QColorESaIS3_ENSt8__detail10_Select1stESt8equal_toIjESt4hashIjENS5_18_Mod_range_hashingENS5_20_Default_ranged_hashENS5_20_Prime_rehash_policyENS5_17_Hashtable_traitsILb0ELb0ELb1EEEE5eraseENS5_20_Node_const_iteratorIS3_Lb0ELb0EEE@Base 5.80.0
 (optional=templinst)_ZNSt8__detail9_Map_baseIjSt4pairIKj6QColorESaIS4_ENS_10_Select1stESt8equal_toIjESt4hashIjENS_18_Mod_range_hashingENS_20_Default_ranged_hashENS_20_Prime_rehash_policyENS_17_Hashtable_traitsILb0ELb0ELb1EEELb1EEixEOj@Base 5.90.0
 _ZTIN8Kirigami13PlatformThemeE@Base 5.69.0
 _ZTIN8Kirigami17TabletModeWatcherE@Base 5.69.0
 _ZTIN8Kirigami19PlatformThemeEvents20PropertyChangedEventI5QFontEE@Base 5.80.0
 _ZTIN8Kirigami19PlatformThemeEvents20PropertyChangedEventI6QColorEE@Base 5.80.0
 _ZTIN8Kirigami19PlatformThemeEvents20PropertyChangedEventINS_13PlatformTheme10ColorGroupEEE@Base 5.80.0
 _ZTIN8Kirigami19PlatformThemeEvents20PropertyChangedEventINS_13PlatformTheme8ColorSetEEE@Base 5.80.0
 _ZTIN8Kirigami20BasicThemeDefinitionE@Base 5.80.0
 _ZTIN8Kirigami21KirigamiPluginFactoryE@Base 5.69.0
 _ZTIN8Kirigami22TabletModeChangedEventE@Base 5.94.0
 _ZTIN8Kirigami22VirtualKeyboardWatcherE@Base 5.93.0
 _ZTIN8Kirigami23KirigamiPluginFactoryV2E@Base 5.90.0
 _ZTIN8Kirigami5UnitsE@Base 5.90.0
 _ZTIN8Kirigami9IconSizesE@Base 5.90.0
 (arch=armel riscv64)_ZTIN9__gnu_cxx7__mutexE@Base 5.81.0
 (arch=armel riscv64)_ZTISt11_Mutex_baseILN9__gnu_cxx12_Lock_policyE1EE@Base 5.81.0
 (arch=!armel !riscv64)_ZTISt11_Mutex_baseILN9__gnu_cxx12_Lock_policyE2EE@Base 5.81.0
 (arch=armel riscv64)_ZTISt16_Sp_counted_baseILN9__gnu_cxx12_Lock_policyE1EE@Base 5.81.0
 (arch=!armel !riscv64)_ZTISt16_Sp_counted_baseILN9__gnu_cxx12_Lock_policyE2EE@Base 5.81.0
 (arch=armel armhf)_ZTISt19_Sp_make_shared_tag@Base 5.81.0
 _ZTSN8Kirigami13PlatformThemeE@Base 5.69.0
 _ZTSN8Kirigami17TabletModeWatcherE@Base 5.69.0
 _ZTSN8Kirigami19PlatformThemeEvents20PropertyChangedEventI5QFontEE@Base 5.80.0
 _ZTSN8Kirigami19PlatformThemeEvents20PropertyChangedEventI6QColorEE@Base 5.80.0
 _ZTSN8Kirigami19PlatformThemeEvents20PropertyChangedEventINS_13PlatformTheme10ColorGroupEEE@Base 5.80.0
 _ZTSN8Kirigami19PlatformThemeEvents20PropertyChangedEventINS_13PlatformTheme8ColorSetEEE@Base 5.80.0
 _ZTSN8Kirigami20BasicThemeDefinitionE@Base 5.80.0
 _ZTSN8Kirigami21KirigamiPluginFactoryE@Base 5.69.0
 _ZTSN8Kirigami22TabletModeChangedEventE@Base 5.94.0
 _ZTSN8Kirigami22VirtualKeyboardWatcherE@Base 5.93.0
 _ZTSN8Kirigami23KirigamiPluginFactoryV2E@Base 5.90.0
 _ZTSN8Kirigami5UnitsE@Base 5.90.0
 _ZTSN8Kirigami9IconSizesE@Base 5.90.0
 (arch=armel riscv64)_ZTSN9__gnu_cxx7__mutexE@Base 5.81.0
 (arch=armel riscv64)_ZTSSt11_Mutex_baseILN9__gnu_cxx12_Lock_policyE1EE@Base 5.81.0
 (arch=!armel !riscv64)_ZTSSt11_Mutex_baseILN9__gnu_cxx12_Lock_policyE2EE@Base 5.81.0
 (arch=armel riscv64)_ZTSSt16_Sp_counted_baseILN9__gnu_cxx12_Lock_policyE1EE@Base 5.81.0
 (arch=!armel !riscv64)_ZTSSt16_Sp_counted_baseILN9__gnu_cxx12_Lock_policyE2EE@Base 5.81.0
 _ZTSSt19_Sp_make_shared_tag@Base 5.80.0
 _ZTVN8Kirigami13PlatformThemeE@Base 5.69.0
 _ZTVN8Kirigami17TabletModeWatcherE@Base 5.69.0
 _ZTVN8Kirigami19PlatformThemeEvents20PropertyChangedEventI5QFontEE@Base 5.80.0
 _ZTVN8Kirigami19PlatformThemeEvents20PropertyChangedEventI6QColorEE@Base 5.80.0
 _ZTVN8Kirigami19PlatformThemeEvents20PropertyChangedEventINS_13PlatformTheme10ColorGroupEEE@Base 5.80.0
 _ZTVN8Kirigami19PlatformThemeEvents20PropertyChangedEventINS_13PlatformTheme8ColorSetEEE@Base 5.80.0
 _ZTVN8Kirigami20BasicThemeDefinitionE@Base 5.80.0
 _ZTVN8Kirigami21KirigamiPluginFactoryE@Base 5.69.0
 _ZTVN8Kirigami22TabletModeChangedEventE@Base 5.94.0
 _ZTVN8Kirigami22VirtualKeyboardWatcherE@Base 5.93.0
 _ZTVN8Kirigami23KirigamiPluginFactoryV2E@Base 5.90.0
 _ZTVN8Kirigami5UnitsE@Base 5.90.0
 _ZTVN8Kirigami9IconSizesE@Base 5.90.0
 _ZZNSt19_Sp_make_shared_tag5_S_tiEvE5__tag@Base 5.80.0
